target datalayout = "e-m:e-p270:32:32-p271:32:32-p272:64:64-i64:64-i128:128-f80:128-n8:16:32:64-S128"
target triple = "x86_64-pc-linux-gnu"

%"class.llvm::SMLoc" = type { ptr }
%"class.llvm::StringRef" = type { ptr, i64 }
%"class.std::unique_ptr" = type { %"struct.std::__uniq_ptr_data" }
%"struct.std::__uniq_ptr_data" = type { %"class.std::__uniq_ptr_impl" }
%"class.std::__uniq_ptr_impl" = type { %"class.std::tuple" }
%"class.std::tuple" = type { %"struct.std::_Tuple_impl" }
%"struct.std::_Tuple_impl" = type { %"struct.std::_Head_base.1" }
%"struct.std::_Head_base.1" = type { ptr }
%"struct.std::_Rb_tree_header" = type { %"struct.std::_Rb_tree_node_base", i64 }
%"struct.std::_Rb_tree_node_base" = type { i32, ptr, ptr, ptr }
%"class.std::__cxx11::basic_string" = type { %"struct.std::__cxx11::basic_string<char>::_Alloc_hider", i64, %union.anon }
%"struct.std::__cxx11::basic_string<char>::_Alloc_hider" = type { ptr }
%union.anon = type { i64, [8 x i8] }
%"class.llvm::SmallVectorBase" = type { ptr, i32, i32 }
%"class.llvm::TGParser" = type <{ %"class.llvm::TGLexer", %"class.std::vector.66", %"class.std::map.71", %"class.std::map.76", %"class.std::vector.81", %"class.llvm::SmallVector.86", ptr, %"class.std::unique_ptr", ptr, i8, i8, [6 x i8] }>
%"class.llvm::TGLexer" = type { ptr, ptr, %"class.llvm::StringRef", ptr, i32, %"class.std::__cxx11::basic_string", i64, i32, %"class.std::set", %"class.llvm::StringSet", %"class.std::vector.61" }
%"class.std::set" = type { %"class.std::_Rb_tree.55" }
%"class.std::_Rb_tree.55" = type { %"struct.std::_Rb_tree<std::__cxx11::basic_string<char>, std::__cxx11::basic_string<char>, std::_Identity<std::__cxx11::basic_string<char>>, std::less<std::__cxx11::basic_string<char>>>::_Rb_tree_impl" }
%"struct.std::_Rb_tree<std::__cxx11::basic_string<char>, std::__cxx11::basic_string<char>, std::_Identity<std::__cxx11::basic_string<char>>, std::less<std::__cxx11::basic_string<char>>>::_Rb_tree_impl" = type { [8 x i8], %"struct.std::_Rb_tree_header" }
%"class.llvm::StringSet" = type { %"class.llvm::StringMap.60" }
%"class.llvm::StringMap.60" = type { %"class.llvm::StringMapImpl" }
%"class.llvm::StringMapImpl" = type { ptr, i32, i32, i32, i32 }
%"class.std::vector.61" = type { %"struct.std::_Vector_base.62" }
%"struct.std::_Vector_base.62" = type { %"struct.std::_Vector_base<std::unique_ptr<std::vector<llvm::TGLexer::PreprocessorControlDesc>>, std::allocator<std::unique_ptr<std::vector<llvm::TGLexer::PreprocessorControlDesc>>>>::_Vector_impl" }
%"struct.std::_Vector_base<std::unique_ptr<std::vector<llvm::TGLexer::PreprocessorControlDesc>>, std::allocator<std::unique_ptr<std::vector<llvm::TGLexer::PreprocessorControlDesc>>>>::_Vector_impl" = type { %"struct.std::_Vector_base<std::unique_ptr<std::vector<llvm::TGLexer::PreprocessorControlDesc>>, std::allocator<std::unique_ptr<std::vector<llvm::TGLexer::PreprocessorControlDesc>>>>::_Vector_impl_data" }
%"struct.std::_Vector_base<std::unique_ptr<std::vector<llvm::TGLexer::PreprocessorControlDesc>>, std::allocator<std::unique_ptr<std::vector<llvm::TGLexer::PreprocessorControlDesc>>>>::_Vector_impl_data" = type { ptr, ptr, ptr }
%"class.std::vector.66" = type { %"struct.std::_Vector_base.67" }
%"struct.std::_Vector_base.67" = type { %"struct.std::_Vector_base<llvm::SmallVector<llvm::LetRecord, 4>, std::allocator<llvm::SmallVector<llvm::LetRecord, 4>>>::_Vector_impl" }
%"struct.std::_Vector_base<llvm::SmallVector<llvm::LetRecord, 4>, std::allocator<llvm::SmallVector<llvm::LetRecord, 4>>>::_Vector_impl" = type { %"struct.std::_Vector_base<llvm::SmallVector<llvm::LetRecord, 4>, std::allocator<llvm::SmallVector<llvm::LetRecord, 4>>>::_Vector_impl_data" }
%"struct.std::_Vector_base<llvm::SmallVector<llvm::LetRecord, 4>, std::allocator<llvm::SmallVector<llvm::LetRecord, 4>>>::_Vector_impl_data" = type { ptr, ptr, ptr }
%"class.std::map.71" = type { %"class.std::_Rb_tree.72" }
%"class.std::_Rb_tree.72" = type { %"struct.std::_Rb_tree<std::__cxx11::basic_string<char>, std::pair<const std::__cxx11::basic_string<char>, std::unique_ptr<llvm::MultiClass>>, std::_Select1st<std::pair<const std::__cxx11::basic_string<char>, std::unique_ptr<llvm::MultiClass>>>, std::less<std::__cxx11::basic_string<char>>>::_Rb_tree_impl" }
%"struct.std::_Rb_tree<std::__cxx11::basic_string<char>, std::pair<const std::__cxx11::basic_string<char>, std::unique_ptr<llvm::MultiClass>>, std::_Select1st<std::pair<const std::__cxx11::basic_string<char>, std::unique_ptr<llvm::MultiClass>>>, std::less<std::__cxx11::basic_string<char>>>::_Rb_tree_impl" = type { [8 x i8], %"struct.std::_Rb_tree_header" }
%"class.std::map.76" = type { %"class.std::_Rb_tree.77" }
%"class.std::_Rb_tree.77" = type { %"struct.std::_Rb_tree<std::__cxx11::basic_string<char>, std::pair<const std::__cxx11::basic_string<char>, llvm::RecTy *>, std::_Select1st<std::pair<const std::__cxx11::basic_string<char>, llvm::RecTy *>>, std::less<std::__cxx11::basic_string<char>>>::_Rb_tree_impl" }
%"struct.std::_Rb_tree<std::__cxx11::basic_string<char>, std::pair<const std::__cxx11::basic_string<char>, llvm::RecTy *>, std::_Select1st<std::pair<const std::__cxx11::basic_string<char>, llvm::RecTy *>>, std::less<std::__cxx11::basic_string<char>>>::_Rb_tree_impl" = type { [8 x i8], %"struct.std::_Rb_tree_header" }
%"class.std::vector.81" = type { %"struct.std::_Vector_base.82" }
%"struct.std::_Vector_base.82" = type { %"struct.std::_Vector_base<std::unique_ptr<llvm::ForeachLoop>, std::allocator<std::unique_ptr<llvm::ForeachLoop>>>::_Vector_impl" }
%"struct.std::_Vector_base<std::unique_ptr<llvm::ForeachLoop>, std::allocator<std::unique_ptr<llvm::ForeachLoop>>>::_Vector_impl" = type { %"struct.std::_Vector_base<std::unique_ptr<llvm::ForeachLoop>, std::allocator<std::unique_ptr<llvm::ForeachLoop>>>::_Vector_impl_data" }
%"struct.std::_Vector_base<std::unique_ptr<llvm::ForeachLoop>, std::allocator<std::unique_ptr<llvm::ForeachLoop>>>::_Vector_impl_data" = type { ptr, ptr, ptr }
%"class.llvm::SmallVector.86" = type { %"class.llvm::SmallVectorImpl.87", %"struct.llvm::SmallVectorStorage.90" }
%"class.llvm::SmallVectorImpl.87" = type { %"class.llvm::SmallVectorTemplateBase.88" }
%"class.llvm::SmallVectorTemplateBase.88" = type { %"class.llvm::SmallVectorTemplateCommon.89" }
%"class.llvm::SmallVectorTemplateCommon.89" = type { %"class.llvm::SmallVectorBase" }
%"struct.llvm::SmallVectorStorage.90" = type { [16 x i8] }
%"class.llvm::ArrayRef" = type { ptr, i64 }
%"class.__gnu_cxx::__normal_iterator.216" = type { ptr }
%"struct.llvm::LetRecord" = type { ptr, %"class.std::vector.222", ptr, %"class.llvm::SMLoc" }
%"class.std::vector.222" = type { %"struct.std::_Vector_base.223" }
%"struct.std::_Vector_base.223" = type { %"struct.std::_Vector_base<unsigned int, std::allocator<unsigned int>>::_Vector_impl" }
%"struct.std::_Vector_base<unsigned int, std::allocator<unsigned int>>::_Vector_impl" = type { %"struct.std::_Vector_base<unsigned int, std::allocator<unsigned int>>::_Vector_impl_data" }
%"struct.std::_Vector_base<unsigned int, std::allocator<unsigned int>>::_Vector_impl_data" = type { ptr, ptr, ptr }
%"class.llvm::SmallVector.217" = type { %"class.llvm::SmallVectorImpl.218", %"struct.llvm::SmallVectorStorage.221" }
%"class.llvm::SmallVectorImpl.218" = type { %"class.llvm::SmallVectorTemplateBase.219" }
%"class.llvm::SmallVectorTemplateBase.219" = type { %"class.llvm::SmallVectorTemplateCommon.220" }
%"class.llvm::SmallVectorTemplateCommon.220" = type { %"class.llvm::SmallVectorBase" }
%"struct.llvm::SmallVectorStorage.221" = type { [192 x i8] }

; Function Attrs: mustprogress nounwind uwtable
define linkonce_odr hidden noundef ptr @_ZNKSt6vectorIjSaIjEE11_M_data_ptrIjEEPT_S4_(ptr noundef nonnull align 8 dereferenceable(24) %0, ptr noundef %1) #0 comdat align 2 {
  %3 = alloca ptr, align 8
  %4 = alloca ptr, align 8
  store ptr %0, ptr %3, align 8
  store ptr %1, ptr %4, align 8
  %5 = load ptr, ptr %4, align 8
  ret ptr %5
}

; Function Attrs: mustprogress nounwind uwtable
define linkonce_odr hidden noundef i64 @_ZNKSt6vectorIjSaIjEE4sizeEv(ptr noundef nonnull align 8 dereferenceable(24) %0) #0 comdat align 2 {
  %2 = alloca ptr, align 8
  store ptr %0, ptr %2, align 8
  %3 = load ptr, ptr %2, align 8
  %4 = getelementptr inbounds nuw %"struct.std::_Vector_base.223", ptr %3, i32 0, i32 0
  %5 = getelementptr inbounds nuw %"struct.std::_Vector_base<unsigned int, std::allocator<unsigned int>>::_Vector_impl_data", ptr %4, i32 0, i32 1
  %6 = load ptr, ptr %5, align 8
  %7 = getelementptr inbounds nuw %"struct.std::_Vector_base.223", ptr %3, i32 0, i32 0
  %8 = getelementptr inbounds nuw %"struct.std::_Vector_base<unsigned int, std::allocator<unsigned int>>::_Vector_impl_data", ptr %7, i32 0, i32 0
  %9 = load ptr, ptr %8, align 8
  %10 = ptrtoint ptr %6 to i64
  %11 = ptrtoint ptr %9 to i64
  %12 = sub i64 %10, %11
  %13 = sdiv exact i64 %12, 4
  ret i64 %13
}

; Function Attrs: mustprogress nounwind uwtable
define linkonce_odr hidden noundef ptr @_ZNKSt6vectorIjSaIjEE4dataEv(ptr noundef nonnull align 8 dereferenceable(24) %0) #0 comdat align 2 {
  %2 = alloca ptr, align 8
  store ptr %0, ptr %2, align 8
  %3 = load ptr, ptr %2, align 8
  %4 = getelementptr inbounds nuw %"struct.std::_Vector_base.223", ptr %3, i32 0, i32 0
  %5 = getelementptr inbounds nuw %"struct.std::_Vector_base<unsigned int, std::allocator<unsigned int>>::_Vector_impl_data", ptr %4, i32 0, i32 0
  %6 = load ptr, ptr %5, align 8
  %7 = call noundef ptr @_ZNKSt6vectorIjSaIjEE11_M_data_ptrIjEEPT_S4_(ptr noundef nonnull align 8 dereferenceable(24) %3, ptr noundef %6) #11
  ret ptr %7
}

; Function Attrs: mustprogress nounwind uwtable
define linkonce_odr hidden noundef nonnull align 8 dereferenceable(8) ptr @_ZNK9__gnu_cxx17__normal_iteratorIPN4llvm11SmallVectorINS1_9LetRecordELj4EEESt6vectorIS4_SaIS4_EEE4baseEv(ptr noundef nonnull align 8 dereferenceable(8) %0) #0 comdat align 2 {
  %2 = alloca ptr, align 8
  store ptr %0, ptr %2, align 8
  %3 = load ptr, ptr %2, align 8
  %4 = getelementptr inbounds nuw %"class.__gnu_cxx::__normal_iterator.216", ptr %3, i32 0, i32 0
  ret ptr %4
}

; Function Attrs: mustprogress nounwind uwtable
define linkonce_odr hidden void @_ZN9__gnu_cxx17__normal_iteratorIPN4llvm11SmallVectorINS1_9LetRecordELj4EEESt6vectorIS4_SaIS4_EEEC2ERKS5_(ptr noundef nonnull align 8 dereferenceable(8) %0, ptr noundef nonnull align 8 dereferenceable(8) %1) unnamed_addr #0 comdat align 2 {
  %3 = alloca ptr, align 8
  %4 = alloca ptr, align 8
  store ptr %0, ptr %3, align 8
  store ptr %1, ptr %4, align 8
  %5 = load ptr, ptr %3, align 8
  %6 = getelementptr inbounds nuw %"class.__gnu_cxx::__normal_iterator.216", ptr %5, i32 0, i32 0
  %7 = load ptr, ptr %4, align 8
  %8 = load ptr, ptr %7, align 8
  store ptr %8, ptr %6, align 8
  ret void
}

; Function Attrs: mustprogress nounwind uwtable
define linkonce_odr hidden noundef nonnull align 8 dereferenceable(8) ptr @_ZN9__gnu_cxx17__normal_iteratorIPN4llvm11SmallVectorINS1_9LetRecordELj4EEESt6vectorIS4_SaIS4_EEEppEv(ptr noundef nonnull align 8 dereferenceable(8) %0) #0 comdat align 2 {
  %2 = alloca ptr, align 8
  store ptr %0, ptr %2, align 8
  %3 = load ptr, ptr %2, align 8
  %4 = getelementptr inbounds nuw %"class.__gnu_cxx::__normal_iterator.216", ptr %3, i32 0, i32 0
  %5 = load ptr, ptr %4, align 8
  %6 = getelementptr inbounds %"class.llvm::SmallVector.217", ptr %5, i32 1
  store ptr %6, ptr %4, align 8
  ret ptr %3
}

; Function Attrs: mustprogress nounwind uwtable
define linkonce_odr hidden void @_ZN4llvm8ArrayRefIjEC2ISaIjEEERKSt6vectorIjT_E(ptr noundef nonnull align 8 dereferenceable(16) %0, ptr noundef nonnull align 8 dereferenceable(24) %1) unnamed_addr #0 comdat align 2 {
  %3 = alloca ptr, align 8
  %4 = alloca ptr, align 8
  store ptr %0, ptr %3, align 8
  store ptr %1, ptr %4, align 8
  %5 = load ptr, ptr %3, align 8
  %6 = getelementptr inbounds nuw %"class.llvm::ArrayRef", ptr %5, i32 0, i32 0
  %7 = load ptr, ptr %4, align 8
  %8 = call noundef ptr @_ZNKSt6vectorIjSaIjEE4dataEv(ptr noundef nonnull align 8 dereferenceable(24) %7) #11
  store ptr %8, ptr %6, align 8
  %9 = getelementptr inbounds nuw %"class.llvm::ArrayRef", ptr %5, i32 0, i32 1
  %10 = load ptr, ptr %4, align 8
  %11 = call noundef i64 @_ZNKSt6vectorIjSaIjEE4sizeEv(ptr noundef nonnull align 8 dereferenceable(24) %10) #11
  store i64 %11, ptr %9, align 8
  ret void
}

; Function Attrs: mustprogress nounwind uwtable
define linkonce_odr hidden noundef ptr @_ZN4llvm25SmallVectorTemplateCommonINS_9LetRecordEvE3endEv(ptr noundef nonnull align 8 dereferenceable(16) %0) #0 comdat align 2 {
  %2 = alloca ptr, align 8
  store ptr %0, ptr %2, align 8
  %3 = load ptr, ptr %2, align 8
  %4 = call noundef ptr @_ZN4llvm25SmallVectorTemplateCommonINS_9LetRecordEvE5beginEv(ptr noundef nonnull align 8 dereferenceable(16) %3)
  %5 = call noundef i64 @_ZNK4llvm15SmallVectorBaseIjE4sizeEv(ptr noundef nonnull align 8 dereferenceable(16) %3)
  %6 = getelementptr inbounds %"struct.llvm::LetRecord", ptr %4, i64 %5
  ret ptr %6
}

; Function Attrs: mustprogress nounwind uwtable
define linkonce_odr hidden noundef ptr @_ZN4llvm25SmallVectorTemplateCommonINS_9LetRecordEvE5beginEv(ptr noundef nonnull align 8 dereferenceable(16) %0) #0 comdat align 2 {
  %2 = alloca ptr, align 8
  store ptr %0, ptr %2, align 8
  %3 = load ptr, ptr %2, align 8
  %4 = getelementptr inbounds nuw %"class.llvm::SmallVectorBase", ptr %3, i32 0, i32 0
  %5 = load ptr, ptr %4, align 8
  ret ptr %5
}

; Function Attrs: mustprogress nounwind uwtable
define linkonce_odr hidden noundef nonnull align 8 dereferenceable(208) ptr @_ZNK9__gnu_cxx17__normal_iteratorIPN4llvm11SmallVectorINS1_9LetRecordELj4EEESt6vectorIS4_SaIS4_EEEdeEv(ptr noundef nonnull align 8 dereferenceable(8) %0) #0 comdat align 2 {
  %2 = alloca ptr, align 8
  store ptr %0, ptr %2, align 8
  %3 = load ptr, ptr %2, align 8
  %4 = getelementptr inbounds nuw %"class.__gnu_cxx::__normal_iterator.216", ptr %3, i32 0, i32 0
  %5 = load ptr, ptr %4, align 8
  ret ptr %5
}

; Function Attrs: mustprogress nounwind uwtable
define linkonce_odr noundef zeroext i1 @_ZN9__gnu_cxxneIPN4llvm11SmallVectorINS1_9LetRecordELj4EEESt6vectorIS4_SaIS4_EEEEbRKNS_17__normal_iteratorIT_T0_EESE_(ptr noundef nonnull align 8 dereferenceable(8) %0, ptr noundef nonnull align 8 dereferenceable(8) %1) #0 comdat {
  %3 = alloca ptr, align 8
  %4 = alloca ptr, align 8
  store ptr %0, ptr %3, align 8
  store ptr %1, ptr %4, align 8
  %5 = load ptr, ptr %3, align 8
  %6 = call noundef nonnull align 8 dereferenceable(8) ptr @_ZNK9__gnu_cxx17__normal_iteratorIPN4llvm11SmallVectorINS1_9LetRecordELj4EEESt6vectorIS4_SaIS4_EEE4baseEv(ptr noundef nonnull align 8 dereferenceable(8) %5) #11
  %7 = load ptr, ptr %6, align 8
  %8 = load ptr, ptr %4, align 8
  %9 = call noundef nonnull align 8 dereferenceable(8) ptr @_ZNK9__gnu_cxx17__normal_iteratorIPN4llvm11SmallVectorINS1_9LetRecordELj4EEESt6vectorIS4_SaIS4_EEE4baseEv(ptr noundef nonnull align 8 dereferenceable(8) %8) #11
  %10 = load ptr, ptr %9, align 8
  %11 = icmp ne ptr %7, %10
  ret i1 %11
}

; Function Attrs: mustprogress nounwind uwtable
define linkonce_odr hidden ptr @_ZNSt6vectorIN4llvm11SmallVectorINS0_9LetRecordELj4EEESaIS3_EE3endEv(ptr noundef nonnull align 8 dereferenceable(24) %0) #0 comdat align 2 {
  %2 = alloca %"class.__gnu_cxx::__normal_iterator.216", align 8
  %3 = alloca ptr, align 8
  store ptr %0, ptr %3, align 8
  %4 = load ptr, ptr %3, align 8
  %5 = getelementptr inbounds nuw %"struct.std::_Vector_base.67", ptr %4, i32 0, i32 0
  %6 = getelementptr inbounds nuw %"struct.std::_Vector_base<llvm::SmallVector<llvm::LetRecord, 4>, std::allocator<llvm::SmallVector<llvm::LetRecord, 4>>>::_Vector_impl_data", ptr %5, i32 0, i32 1
  call void @_ZN9__gnu_cxx17__normal_iteratorIPN4llvm11SmallVectorINS1_9LetRecordELj4EEESt6vectorIS4_SaIS4_EEEC2ERKS5_(ptr noundef nonnull align 8 dereferenceable(8) %2, ptr noundef nonnull align 8 dereferenceable(8) %6) #11
  %7 = getelementptr inbounds nuw %"class.__gnu_cxx::__normal_iterator.216", ptr %2, i32 0, i32 0
  %8 = load ptr, ptr %7, align 8
  ret ptr %8
}

; Function Attrs: mustprogress nounwind uwtable
define linkonce_odr hidden ptr @_ZNSt6vectorIN4llvm11SmallVectorINS0_9LetRecordELj4EEESaIS3_EE5beginEv(ptr noundef nonnull align 8 dereferenceable(24) %0) #0 comdat align 2 {
  %2 = alloca %"class.__gnu_cxx::__normal_iterator.216", align 8
  %3 = alloca ptr, align 8
  store ptr %0, ptr %3, align 8
  %4 = load ptr, ptr %3, align 8
  %5 = getelementptr inbounds nuw %"struct.std::_Vector_base.67", ptr %4, i32 0, i32 0
  %6 = getelementptr inbounds nuw %"struct.std::_Vector_base<llvm::SmallVector<llvm::LetRecord, 4>, std::allocator<llvm::SmallVector<llvm::LetRecord, 4>>>::_Vector_impl_data", ptr %5, i32 0, i32 0
  call void @_ZN9__gnu_cxx17__normal_iteratorIPN4llvm11SmallVectorINS1_9LetRecordELj4EEESt6vectorIS4_SaIS4_EEEC2ERKS5_(ptr noundef nonnull align 8 dereferenceable(8) %2, ptr noundef nonnull align 8 dereferenceable(8) %6) #11
  %7 = getelementptr inbounds nuw %"class.__gnu_cxx::__normal_iterator.216", ptr %2, i32 0, i32 0
  %8 = load ptr, ptr %7, align 8
  ret ptr %8
}

; Function Attrs: mustprogress nounwind uwtable
define dso_local noundef zeroext i1 @_ZN4llvm8TGParser13ApplyLetStackEPNS_6RecordE(ptr noundef nonnull align 8 dereferenceable(394) %0, ptr noundef %1) #0 align 2 {
  %3 = alloca i1, align 1
  %4 = alloca ptr, align 8
  %5 = alloca ptr, align 8
  %6 = alloca ptr, align 8
  %7 = alloca %"class.__gnu_cxx::__normal_iterator.216", align 8
  %8 = alloca %"class.__gnu_cxx::__normal_iterator.216", align 8
  %9 = alloca ptr, align 8
  %10 = alloca ptr, align 8
  %11 = alloca ptr, align 8
  %12 = alloca ptr, align 8
  %13 = alloca ptr, align 8
  %14 = alloca %"class.llvm::SMLoc", align 8
  %15 = alloca %"class.llvm::ArrayRef", align 8
  store ptr %0, ptr %4, align 8
  store ptr %1, ptr %5, align 8
  %16 = load ptr, ptr %4, align 8
  %17 = getelementptr inbounds nuw %"class.llvm::TGParser", ptr %16, i32 0, i32 1
  store ptr %17, ptr %6, align 8
  %18 = load ptr, ptr %6, align 8
  %19 = call ptr @_ZNSt6vectorIN4llvm11SmallVectorINS0_9LetRecordELj4EEESaIS3_EE5beginEv(ptr noundef nonnull align 8 dereferenceable(24) %18) #11
  %20 = getelementptr inbounds nuw %"class.__gnu_cxx::__normal_iterator.216", ptr %7, i32 0, i32 0
  store ptr %19, ptr %20, align 8
  %21 = load ptr, ptr %6, align 8
  %22 = call ptr @_ZNSt6vectorIN4llvm11SmallVectorINS0_9LetRecordELj4EEESaIS3_EE3endEv(ptr noundef nonnull align 8 dereferenceable(24) %21) #11
  %23 = getelementptr inbounds nuw %"class.__gnu_cxx::__normal_iterator.216", ptr %8, i32 0, i32 0
  store ptr %22, ptr %23, align 8
  br label %24

24:                                               ; preds = %63, %2
  %25 = call noundef zeroext i1 @_ZN9__gnu_cxxneIPN4llvm11SmallVectorINS1_9LetRecordELj4EEESt6vectorIS4_SaIS4_EEEEbRKNS_17__normal_iteratorIT_T0_EESE_(ptr noundef nonnull align 8 dereferenceable(8) %7, ptr noundef nonnull align 8 dereferenceable(8) %8) #11
  br i1 %25, label %26, label %65

26:                                               ; preds = %24
  %27 = call noundef nonnull align 8 dereferenceable(208) ptr @_ZNK9__gnu_cxx17__normal_iteratorIPN4llvm11SmallVectorINS1_9LetRecordELj4EEESt6vectorIS4_SaIS4_EEEdeEv(ptr noundef nonnull align 8 dereferenceable(8) %7) #11
  store ptr %27, ptr %9, align 8
  %28 = load ptr, ptr %9, align 8
  store ptr %28, ptr %10, align 8
  %29 = load ptr, ptr %10, align 8
  %30 = call noundef ptr @_ZN4llvm25SmallVectorTemplateCommonINS_9LetRecordEvE5beginEv(ptr noundef nonnull align 8 dereferenceable(16) %29)
  store ptr %30, ptr %11, align 8
  %31 = load ptr, ptr %10, align 8
  %32 = call noundef ptr @_ZN4llvm25SmallVectorTemplateCommonINS_9LetRecordEvE3endEv(ptr noundef nonnull align 8 dereferenceable(16) %31)
  store ptr %32, ptr %12, align 8
  br label %33

33:                                               ; preds = %59, %26
  %34 = load ptr, ptr %11, align 8
  %35 = load ptr, ptr %12, align 8
  %36 = icmp ne ptr %34, %35
  br i1 %36, label %37, label %62

37:                                               ; preds = %33
  %38 = load ptr, ptr %11, align 8
  store ptr %38, ptr %13, align 8
  %39 = load ptr, ptr %5, align 8
  %40 = load ptr, ptr %13, align 8
  %41 = getelementptr inbounds nuw %"struct.llvm::LetRecord", ptr %40, i32 0, i32 3
  call void @llvm.memcpy.p0.p0.i64(ptr align 8 %14, ptr align 8 %41, i64 8, i1 false)
  %42 = load ptr, ptr %13, align 8
  %43 = getelementptr inbounds nuw %"struct.llvm::LetRecord", ptr %42, i32 0, i32 0
  %44 = load ptr, ptr %43, align 8
  %45 = load ptr, ptr %13, align 8
  %46 = getelementptr inbounds nuw %"struct.llvm::LetRecord", ptr %45, i32 0, i32 1
  call void @_ZN4llvm8ArrayRefIjEC2ISaIjEEERKSt6vectorIjT_E(ptr noundef nonnull align 8 dereferenceable(16) %15, ptr noundef nonnull align 8 dereferenceable(24) %46)
  %47 = load ptr, ptr %13, align 8
  %48 = getelementptr inbounds nuw %"struct.llvm::LetRecord", ptr %47, i32 0, i32 2
  %49 = load ptr, ptr %48, align 8
  %50 = getelementptr inbounds nuw %"class.llvm::SMLoc", ptr %14, i32 0, i32 0
  %51 = load ptr, ptr %50, align 8
  %52 = getelementptr inbounds nuw { ptr, i64 }, ptr %15, i32 0, i32 0
  %53 = load ptr, ptr %52, align 8
  %54 = getelementptr inbounds nuw { ptr, i64 }, ptr %15, i32 0, i32 1
  %55 = load i64, ptr %54, align 8
  %56 = call noundef zeroext i1 @_ZN4llvm8TGParser8SetValueEPNS_6RecordENS_5SMLocEPNS_4InitENS_8ArrayRefIjEES5_bb(ptr noundef nonnull align 8 dereferenceable(394) %16, ptr noundef %39, ptr %51, ptr noundef %44, ptr %53, i64 %55, ptr noundef %49, i1 noundef zeroext false, i1 noundef zeroext true)
  br i1 %56, label %57, label %58

57:                                               ; preds = %37
  store i1 true, ptr %3, align 1
  br label %66

58:                                               ; preds = %37
  br label %59

59:                                               ; preds = %58
  %60 = load ptr, ptr %11, align 8
  %61 = getelementptr inbounds %"struct.llvm::LetRecord", ptr %60, i32 1
  store ptr %61, ptr %11, align 8
  br label %33

62:                                               ; preds = %33
  br label %63

63:                                               ; preds = %62
  %64 = call noundef nonnull align 8 dereferenceable(8) ptr @_ZN9__gnu_cxx17__normal_iteratorIPN4llvm11SmallVectorINS1_9LetRecordELj4EEESt6vectorIS4_SaIS4_EEEppEv(ptr noundef nonnull align 8 dereferenceable(8) %7) #11
  br label %24

65:                                               ; preds = %24
  store i1 false, ptr %3, align 1
  br label %66

66:                                               ; preds = %65, %57
  %67 = load i1, ptr %3, align 1
  ret i1 %67
}