; Function Attrs: mustprogress nounwind uwtable
define dso_local noundef zeroext i1 @_ZN4llvm8TGParser13ApplyLetStackEPNS_6RecordE(ptr noundef nonnull readonly align 8 captures(none) dereferenceable(394) %0, ptr noundef %1) local_unnamed_addr #0 align 2 {
  %3 = getelementptr inbounds nuw i8, ptr %0, i64 192
  %4 = load ptr, ptr %3, align 8
  %5 = getelementptr inbounds nuw i8, ptr %0, i64 200
  %6 = load ptr, ptr %5, align 8
  %.not28 = icmp eq ptr %4, %6
  br i1 %.not28, label %.loopexit, label %.lr.ph27

.lr.ph27:                                         ; preds = %2, %._crit_edge
  %.sroa.018.025 = phi ptr [ %25, %._crit_edge ], [ %4, %2 ]
  %7 = load ptr, ptr %.sroa.018.025, align 8
  %8 = tail call noundef i64 @_ZNK4llvm15SmallVectorBaseIjE4sizeEv(ptr noundef nonnull align 8 dereferenceable(16) %.sroa.018.025) #17
  %9 = getelementptr inbounds %"struct.llvm::LetRecord", ptr %7, i64 %8
  %.not23 = icmp eq i64 %8, 0
  br i1 %.not23, label %._crit_edge, label %.lr.ph

10:                                               ; preds = %.lr.ph
  %11 = getelementptr inbounds nuw i8, ptr %.01624, i64 48
  %.not = icmp eq ptr %11, %9
  br i1 %.not, label %._crit_edge, label %.lr.ph

.lr.ph:                                           ; preds = %.lr.ph27, %10
  %.01624 = phi ptr [ %11, %10 ], [ %7, %.lr.ph27 ]
  %12 = getelementptr inbounds nuw i8, ptr %.01624, i64 40
  %.sroa.0.0.copyload = load ptr, ptr %12, align 8
  %13 = load ptr, ptr %.01624, align 8
  %14 = getelementptr inbounds nuw i8, ptr %.01624, i64 8
  %15 = load ptr, ptr %14, align 8
  %16 = getelementptr inbounds nuw i8, ptr %.01624, i64 16
  %17 = load ptr, ptr %16, align 8
  %18 = ptrtoint ptr %17 to i64
  %19 = ptrtoint ptr %15 to i64
  %20 = sub i64 %18, %19
  %21 = ashr exact i64 %20, 2
  %22 = getelementptr inbounds nuw i8, ptr %.01624, i64 32
  %23 = load ptr, ptr %22, align 8
  %24 = tail call noundef zeroext i1 @_ZN4llvm8TGParser8SetValueEPNS_6RecordENS_5SMLocEPNS_4InitENS_8ArrayRefIjEES5_bb(ptr noundef nonnull align 8 dereferenceable(394) %0, ptr noundef %1, ptr %.sroa.0.0.copyload, ptr noundef %13, ptr %15, i64 %21, ptr noundef %23, i1 noundef zeroext false, i1 noundef zeroext true)
  br i1 %24, label %.loopexit, label %10

._crit_edge:                                      ; preds = %10, %.lr.ph27
  %25 = getelementptr inbounds nuw i8, ptr %.sroa.018.025, i64 208
  %.not29 = icmp eq ptr %25, %6
  br i1 %.not29, label %.loopexit, label %.lr.ph27

.loopexit:                                        ; preds = %._crit_edge, %.lr.ph, %2
  %26 = phi i1 [ false, %2 ], [ true, %.lr.ph ], [ false, %._crit_edge ]
  ret i1 %26
}